(dp0
S'male'
p1
(dp2
Vprep_against
p3
(dp4
Vfile
p5
I1
ssVprep_by
p6
(dp7
Vproduced
p8
I1
sVget
p9
I1
ssVprep_with
p10
(dp11
Vtalked
p12
I1
sVworking
p13
I2
sVyears
p14
I1
sVcandid
p15
I1
sVconnected
p16
I1
sVwas
p17
I2
sVtalk
p18
I1
sVthrew
p19
I1
ssVagent
p20
(dp21
Vproduced
p22
I1
sVwritten
p23
I1
sVimposed
p24
I1
ssVnsubjpass
p25
(dp26
Vdedicated
p27
I2
sVshot
p28
I1
sVinformed
p29
I1
sVreported
p30
I1
sVallowed
p31
I1
sVelected
p32
I1
sVcommitted
p33
I1
sVblocked
p34
I1
sVforced
p35
I1
sVmistreated
p36
I1
sVguaranteed
p37
I1
sVdismissed
p38
I1
sVwaiting
p39
I1
sVquestioned
p40
I2
sVseemed
p41
I1
sVoverqualified
p42
I1
sVvoted
p43
I1
sVremembered
p44
I1
sVpaid
p45
I1
sVhurt
p46
I1
sVinsured
p47
I1
sVprohibited
p48
I1
sVsurvived
p49
I1
sVfrisked
p50
I1
sVput
p51
I2
sVreleased
p52
I5
sVreceived
p53
I1
sVbooked
p54
I1
sVlocked
p55
I1
sVborn
p56
I3
sVinvolved
p57
I2
sVarrested
p58
I3
sVurged
p59
I1
sVworried
p60
I1
sVstopped
p61
I2
sVpromoted
p62
I1
sVtreated
p63
I2
sVasked
p64
I2
ssVprep_from
p65
(dp66
VPresidents
p67
I1
sVis
p68
I1
ssVamod
p69
(dp70
Vside
p71
I1
ssVnn
p72
(dp73
Vresistance
p74
I1
sVShultz
p75
I2
sVBoyle
p76
I1
sVBrown
p77
I1
sVChampionship
p78
I1
sVRidley
p79
I2
sVSkerritt
p80
I2
sVAlden
p81
I1
sVDougherty
p82
I2
sVBurdick
p83
I1
sVTrott
p84
I1
sVGerace
p85
I1
sVPatriarca
p86
I3
sVGoldstein
p87
I1
sVRhodes
p88
I1
sVMandle
p89
I1
sVRedding
p90
I1
sVLanakila
p91
I2
sVThomas
p92
I1
sVParker
p93
I2
sVAbeita
p94
I1
sVGolic
p95
I2
sVMinchenberg
p96
I1
sVMcCarthy
p97
I1
sVWeithorn
p98
I1
sVBandanza
p99
I1
sVGriffith
p100
I9
sVGossett
p101
I1
sVChase
p102
I1
sVZalm
p103
I1
sVSaladino
p104
I1
sVState
p105
I3
sVLibrary
p106
I3
sVCollins
p107
I2
sVCircle
p108
I1
sVBoyd
p109
I1
sVBruce
p110
I1
sVFord
p111
I1
sVFahd
p112
I1
sVColter
p113
I2
sV3d
p114
I1
sVgunners
p115
I1
sVProfumo
p116
I1
sVSandstrom
p117
I1
sVCoyne
p118
I1
sVStalin
p119
I2
sVWindham
p120
I1
sVGreen
p121
I1
sVBerry
p122
I1
sVRybicki
p123
I1
sVMacmillan
p124
I1
sVLyons
p125
I1
sVClark
p126
I1
sVDole
p127
I1
sVRivers
p128
I1
sVHardy
p129
I1
sVHome
p130
I2
sVRivera
p131
I1
sVSantucci
p132
I2
sVMullin
p133
I1
sVNader
p134
I1
sVKingsbury-Smith
p135
I1
sVBrowns
p136
I2
sVSchembechler
p137
I1
sVDooley
p138
I2
sVTex.
p139
I1
sVmarkets
p140
I2
sVGreenberg
p141
I1
sVCBS-TV
p142
I1
sVKennedy
p143
I3
sVRule
p144
I1
sVDiocese
p145
I2
sVByrom
p146
I1
sVWalsh
p147
I1
sVRuesing
p148
I1
sVLinksz
p149
I2
sVestate
p150
I1
sVZiemann
p151
I1
sVCondon
p152
I1
sVWilliamson
p153
I1
sVPaterno
p154
I2
sVNoonan
p155
I1
sVHogson
p156
I1
sVprofile
p157
I2
sVSchneider
p158
I1
sVChapman
p159
I1
sVRyan
p160
I1
sVDoe
p161
I1
sVGarcia
p162
I2
sVTollner
p163
I1
sVMartin
p164
I1
sVSandiford
p165
I2
sVCarlos
p166
I2
sVMoskowitz
p167
I1
sVCsonka
p168
I1
sVStevens
p169
I1
sVPalmieri
p170
I1
sVOrtner
p171
I1
sVMorton
p172
I1
sVWilson
p173
I4
sVWanamaker
p174
I2
sVBlum
p175
I1
sVBarnes
p176
I1
sVSmith
p177
I3
sVDudley
p178
I1
sVWeiss
p179
I1
sVprofessors
p180
I1
sVBianchi
p181
I1
sVMcKyer
p182
I2
sVWhite
p183
I1
sVArias
p184
I1
sVBroadbent
p185
I1
sVJonsson
p186
I1
sVSeifert
p187
I1
sVWechsler
p188
I1
sVO'Connell
p189
I1
sVStapleton
p190
I1
sVCar
p191
I1
sVMisegades
p192
I1
sVBlanda
p193
I2
sVSchwarz
p194
I1
sVKemp
p195
I1
sVLundine
p196
I1
sVWebster
p197
I2
sVWorks
p198
I1
sVRanew
p199
I1
sVBeutel
p200
I1
sVDillard
p201
I1
sVA.Troyer
p202
I1
sVvictory
p203
I1
sVCouncil
p204
I1
sVKeates
p205
I1
sVRose
p206
I1
sVKamen
p207
I1
sVGoldsmith
p208
I1
sVFrazier
p209
I2
sVRoss
p210
I1
sVMcAdoo
p211
I1
sVWhitford
p212
I1
sVCastellano
p213
I1
sVRomeo
p214
I1
sVMerrithew
p215
I1
sVDeering
p216
I1
sVWard
p217
I2
sVSpringsteen
p218
I2
sVStone
p219
I3
sVPortocarrero
p220
I1
sVMeek
p221
I1
sVBuatta
p222
I1
sVUniversity
p223
I2
sVJudd
p224
I1
sVRadden
p225
I1
sVN.Y.
p226
I1
sVSteadman
p227
I1
sVNixon
p228
I2
sVMacomber
p229
I1
sVJulian
p230
I1
sVShadur
p231
I1
sV49ers
p232
I1
sVDivine
p233
I2
sVCofer
p234
I1
sVTuyle
p235
I2
sVSanford
p236
I1
sVIsland
p237
I2
sVMcC
p238
I2
sVUpshaw
p239
I1
sVSporck
p240
I1
sVNorth
p241
I3
sVVoss
p242
I1
sVBarbay
p243
I2
sVVelez
p244
I1
sVBossy
p245
I1
sVMahony
p246
I1
sVB
p247
I2
sVLello
p248
I1
sVTannenberg
p249
I2
sVPeete
p250
I1
sVBoesky
p251
I1
sVInc.
p252
I2
sVDaggett
p253
I1
sVRosenfeld
p254
I1
sVKromm
p255
I1
sVKramer
p256
I1
sVMeese
p257
I1
sVLester
p258
I2
sVPohl
p259
I2
sVMaloney
p260
I1
sVDeLine
p261
I1
sVSaavedra
p262
I2
sVO'Kelley
p263
I1
sVBallet
p264
I3
sVMarcus
p265
I1
sVSimms
p266
I1
sVUrgenson
p267
I1
sVWilliams
p268
I4
sVLopata
p269
I1
sVMacArthur
p270
I1
sVClub
p271
I1
sVCos.
p272
I1
sVRollins
p273
I2
sVSandler
p274
I1
sVMamet
p275
I3
sVJones
p276
I3
sVSheridan
p277
I1
sVRoyal
p278
I1
sVKnight
p279
I1
sVKerr
p280
I1
sVRyder
p281
I1
sVTaplin
p282
I1
sVKern
p283
I1
sVFeliciano
p284
I1
sVGauna
p285
I1
sVJensen
p286
I1
sVSchweitzer
p287
I1
sVHoving
p288
I1
sVEsposito
p289
I1
sVO'Donnell
p290
I2
sVSeagle
p291
I1
sVMcNamara
p292
I2
sVCallahan
p293
I1
sVWitherspoon
p294
I1
sVReynolds
p295
I2
sVNorris
p296
I1
sVNovick
p297
I1
sVKasarda
p298
I1
sVRegan
p299
I1
sVJaramillo
p300
I1
sVSennell
p301
I2
sVRozelle
p302
I1
sVWalton
p303
I1
sVSapper
p304
I1
sVRoad
p305
I2
sVFisher
p306
I1
sVTrottier
p307
I1
sVHoughtlin
p308
I1
sVJojola
p309
I1
sVLevinson
p310
I1
sVFullwood
p311
I1
sVVanbiesbrouck
p312
I1
sVSullivan
p313
I1
sVCarlson
p314
I3
sVWashington
p315
I2
sVKinzer
p316
I2
sVLanzet
p317
I1
sVAllen
p318
I2
sVClifford
p319
I2
sVBennett
p320
I2
sVLevine
p321
I1
sVHospital
p322
I1
sVRosen
p323
I1
sVLolli
p324
I1
sVWright
p325
I5
sVAnderson
p326
I2
sVNekvasil
p327
I1
sVHarbeson
p328
I2
sVOchoa
p329
I1
sVHalvorson
p330
I1
sVVandenberg
p331
I1
sVLudwig
p332
I1
sVWachtler
p333
I1
sVSirica
p334
I1
sVWisdom
p335
I5
sVcatalogue
p336
I1
sVOsborne
p337
I1
sVKing
p338
I6
sVNoriea
p339
I1
sVJohnson
p340
I6
sVSarbin
p341
I1
sVincident
p342
I4
sVCalabrese
p343
I1
sVLindbergh
p344
I2
sVFarrakhan
p345
I1
sVMcDonald
p346
I1
sVCurran
p347
I1
sVBurger
p348
I1
sVMich.
p349
I1
sVWoods
p350
I1
sVSchottenheimer
p351
I1
sVDreyfus
p352
I1
sVMoulton
p353
I2
sVYew
p354
I2
sVTruman
p355
I3
sVKirstein
p356
I1
sVBernstein
p357
I1
sVTemple
p358
I4
sVMetcalf
p359
I1
sVC.
p360
I1
sVO'Connor
p361
I2
sVKrivanek
p362
I1
sVFurber
p363
I1
sVLynch
p364
I8
sVWatt
p365
I1
sVSolender
p366
I1
sVMcKegney
p367
I1
sVCenter
p368
I7
sVblessing
p369
I2
sVDeVito
p370
I3
sVMulroney
p371
I1
sVAction
p372
I1
sVcase
p373
I2
sVLowery
p374
I2
sVSharpton
p375
I1
sVReagan
p376
I1
sVNunn
p377
I1
sVChurch
p378
I2
sVCampbell
p379
I1
sVLauren
p380
I1
sVWilutis
p381
I1
sVMcGovern
p382
I1
sVElfman
p383
I1
sVHottelet
p384
I1
sVChappaqua
p385
I1
sVBacharach
p386
I1
sVLebow
p387
I2
sVBulluck
p388
I1
sVENTERPRISES
p389
I2
sVBeach
p390
I8
sVCo.
p391
I1
sVSchultz
p392
I1
sVMain
p393
I1
sVZimmerman
p394
I1
sVHunter
p395
I1
sVConlan
p396
I2
sVEstevez
p397
I3
sVFlatley
p398
I1
sVBuckey
p399
I1
sVCapanna
p400
I1
sVHicks
p401
I2
sVCox
p402
I1
sVGrey
p403
I2
sVLadone
p404
I1
sVII
p405
I11
sVMorris
p406
I3
sVAikens
p407
I1
sVCarmen
p408
I1
sVCoffin
p409
I1
sVGrimes
p410
I1
sVCarter
p411
I2
sVPerkins
p412
I3
sVRehnquist
p413
I3
sVStarkey
p414
I4
sVGoldman
p415
I1
sVGriffin
p416
I1
sVStumpf
p417
I1
sVConyers
p418
I1
sVLott
p419
I1
sVPoindexter
p420
I1
sVMcKoughan
p421
I1
sVBromberg
p422
I1
sVOstel
p423
I1
sVCompany
p424
I2
sVBosworth
p425
I2
sVNews
p426
I1
sVHarmon
p427
I1
sVLapidus
p428
I1
sVReiner
p429
I1
sVLoewy
p430
I1
sVNelson
p431
I4
sVjudge
p432
I1
sVBruggen
p433
I7
sVRESOURCES
p434
I2
sVTrump
p435
I2
sVFink
p436
I1
sVDurham
p437
I1
sVMathis
p438
I1
sVLittle
p439
I1
sVWest
p440
I1
sVMason
p441
I3
sVKahn
p442
I1
sVHoffmann
p443
I1
sVKresky
p444
I1
sVWhittle
p445
I1
sVDunton
p446
I2
sVWitten
p447
I1
sVNakashima
p448
I2
sVHatcher
p449
I1
sVBaker
p450
I1
sVDavid
p451
I1
sVHoglund
p452
I1
sVDavis
p453
I5
sVFroese
p454
I1
sVTaylor
p455
I2
sVCauwenburgh
p456
I4
sVFasel
p457
I1
sVJR.
p458
I2
sVYoung
p459
I2
sVSchreyer
p460
I1
sVGershwin
p461
I1
sVSpears
p462
I8
sVCuellar
p463
I2
sVSerra
p464
I1
sVBluhdorn
p465
I1
sVMcFarland
p466
I2
sVBateza
p467
I2
sVWeld
p468
I1
sVSheppard
p469
I1
sVBauer
p470
I1
sVAkers
p471
I1
sVStreets
p472
I1
sVartisans
p473
I1
sVMurray
p474
I2
sVruling
p475
I3
sVMoffitt
p476
I1
sVMancuso
p477
I2
sVTate
p478
I2
sVHine
p479
I1
sVRahill
p480
I1
sVPote
p481
I1
sVLiebl
p482
I2
sVHarding
p483
I1
sVJr.
p484
I10
sVXXIII
p485
I2
sVGiles
p486
I1
sVPhilobosian
p487
I1
sVHanna
p488
I1
sVBalanchine
p489
I1
sVArnsparger
p490
I2
sVFuhrman
p491
I1
sVLuers
p492
I1
sVRobinson
p493
I1
sVCulverhouse
p494
I1
sVBlau
p495
I2
sVStreet
p496
I2
sVColon
p497
I1
sVO'Hara
p498
I1
sVTurner
p499
I1
ssVprep_since
p500
(dp501
Vrose
p502
I1
ssVprep_for
p503
(dp504
Vshot
p505
I1
sVself-criticism
p506
I1
sVaffection
p507
I1
ssVconj_and
p508
(dp509
VBlue
p510
I4
sVAlbany
p511
I1
sVpoint
p512
I1
sVMaddox
p513
I2
sVSuffolk
p514
I2
sVBrown
p515
I1
sVMike
p516
I1
sVBoyd
p517
I1
sVJr.
p518
I1
sVJamie
p519
I2
sVlights
p520
I1
sVGuatemala
p521
I1
sVChristopher
p522
I1
sVPrizes
p523
I1
sVEdith
p524
I1
sVChina
p525
I1
sVIraq
p526
I1
sVMullins
p527
I1
sVYork
p528
I1
sVBuckey
p529
I1
sVJohnson
p530
I1
sVKennedy
p531
I1
sVAikens
p532
I1
sVI.B.M.
p533
I1
sVSimpson
p534
I1
sVPalace
p535
I1
sVRivers
p536
I1
sVBritain
p537
I1
sVEric
p538
I2
ssVprep_as
p539
(dp540
Vchic
p541
I1
ssVprep_at
p542
(dp543
Vperformed
p544
I2
sVexemplified
p545
I1
ssVprep_outside
p546
(dp547
Vambushed
p548
I1
ssVnsubj
p549
(dp550
Vgrowling
p551
I1
sVall
p552
I1
sVmanaged
p553
I3
sVissued
p554
I3
sVagreed
p555
I2
sVsent
p556
I1
sVexpects
p557
I1
sVyears
p558
I1
sVdiscovered
p559
I1
sVquotes
p560
I1
sVdemanded
p561
I1
sVknock
p562
I1
sVargued
p563
I2
sVreluctant
p564
I2
sVstrives
p565
I1
sVhold
p566
I1
sVconcurred
p567
I1
sVearned
p568
I1
sVcontinued
p569
I1
sVseems
p570
I1
sVpoint
p571
I1
sVhopeful
p572
I1
sVunable
p573
I4
sVspecify
p574
I1
sVwin
p575
I1
sVannounce
p576
I1
sVsuffered
p577
I1
sVhas
p578
I7
sVindicating
p579
I1
sVgave
p580
I1
sVlived
p581
I1
sVpraised
p582
I1
sVmove
p583
I1
sVreturn
p584
I3
sVreturned
p585
I1
sVseeking
p586
I2
sVbeat
p587
I1
sVcontinues
p588
I1
sVemigrated
p589
I1
sVfeels
p590
I1
sVcatcher
p591
I1
sVsuffering
p592
I1
sVknow
p593
I2
sVjoins
p594
I1
sVdestroy
p595
I1
sVknocks
p596
I1
sVaccepted
p597
I1
sVbringing
p598
I1
sVfled
p599
I3
sVruled
p600
I4
sVgoing
p601
I1
sVreceiving
p602
I1
sVleavs
p603
I1
sVachieve
p604
I2
sVdefended
p605
I1
sVwarned
p606
I2
sVTraps
p607
I1
sVwilling
p608
I1
sVjoined
p609
I1
sVstockier
p610
I1
sVdid
p611
I6
sVmajored
p612
I1
sVtackled
p613
I1
sVpredicted
p614
I1
sVpopular
p615
I1
sVbecome
p616
I2
sVwent
p617
I3
sVnoted
p618
I2
sVview
p619
I2
sVasked
p620
I3
sVsmall
p621
I1
sVtalked
p622
I1
sVsays
p623
I7
sVdealing
p624
I1
sVdived
p625
I1
sVuses
p626
I1
sVfostered
p627
I2
sVused
p628
I2
sVsign
p629
I1
sVdecided
p630
I3
sVtraveling
p631
I1
sVasserted
p632
I1
sVrun
p633
I3
sVavoided
p634
I1
sVthinks
p635
I3
sVdeclined
p636
I1
sVplans
p637
I1
sVdelivered
p638
I2
sVsaid
p639
I139
sVplays
p640
I1
sVopened
p641
I1
sVserved
p642
I1
sVworsen
p643
I1
sVtried
p644
I1
sVcontributed
p645
I1
sVconsiders
p646
I1
sVwon
p647
I2
sVdenied
p648
I1
sVburned
p649
I1
sVblocked
p650
I1
sVannounced
p651
I2
sVtold
p652
I3
sVmake
p653
I5
sVChanged
p654
I1
sVled
p655
I2
sVchose
p656
I1
sVmember
p657
I1
sVfavored
p658
I2
sVpredated
p659
I1
sVsold
p660
I3
sVapplies
p661
I1
sVrefused
p662
I2
sVyoungest
p663
I1
sVmet
p664
I2
sVbusy
p665
I1
sVlooping
p666
I1
sVdefensive
p667
I1
sVvisited
p668
I3
sVask
p669
I5
sVindicates
p670
I1
sVsuppressed
p671
I2
sVblasted
p672
I1
sVsuggested
p673
I1
sVreceived
p674
I2
sVconducting
p675
I1
sVplanned
p676
I1
sVprepare
p677
I1
sVargues
p678
I1
sVdiscussed
p679
I1
sVattributed
p680
I1
sVsuggests
p681
I1
sVbecame
p682
I1
sVoppose
p683
I1
sVdeveloper
p684
I1
sVthreat
p685
I1
sVforgotten
p686
I1
sVmixed
p687
I2
sVarrived
p688
I1
sVweakens
p689
I1
sVtravel
p690
I2
sVfinds
p691
I1
sVcome
p692
I2
sVraised
p693
I2
sVorganize
p694
I1
sVretired
p695
I3
sVcharged
p696
I1
sVrants
p697
I2
sVheaded
p698
I1
sVappeared
p699
I1
sVhad
p700
I5
sVca
p701
I1
sVexplained
p702
I1
sVprefer
p703
I1
sVapt
p704
I1
sVwalk
p705
I1
sVbrought
p706
I1
sVcompetent
p707
I1
sVset
p708
I1
sVdone
p709
I1
sVlikes
p710
I1
sVBishop
p711
I2
sVduck
p712
I1
sVold
p713
I8
sVstand
p714
I1
sVcontended
p715
I1
sVspeak
p716
I1
sVconsidering
p717
I1
sVgiven
p718
I1
sVdescribed
p719
I2
sVwrites
p720
I2
sVworking
p721
I2
sVassumed
p722
I1
sVplayed
p723
I5
sVbeen
p724
I2
sVconfident
p725
I1
sVreturns
p726
I2
sVdescribes
p727
I4
sVcall
p728
I1
sVpassed
p729
I1
sVexpected
p730
I1
sVupheld
p731
I1
sVcondone
p732
I1
sVwas
p733
I5
sVrecovered
p734
I1
sVhappy
p735
I1
sVwants
p736
I2
sVasks
p737
I1
sVbuy
p738
I2
sVcontinue
p739
I1
sVhub
p740
I1
sVstarted
p741
I2
sVturned
p742
I1
sVcompleted
p743
I1
sVMetals
p744
I1
sVperformed
p745
I2
sVrejected
p746
I1
sVhoped
p747
I1
sVtested
p748
I1
sVfinished
p749
I1
sVlives
p750
I2
sVshowman
p751
I1
sVbroke
p752
I2
sVcovered
p753
I1
sVfocusing
p754
I1
sVworked
p755
I1
sVbelieve
p756
I2
sVrepresenting
p757
I1
sVappointed
p758
I1
sVpresent
p759
I1
sVcarried
p760
I1
sVdirected
p761
I1
sVmade
p762
I5
sVovercame
p763
I1
sVtalking
p764
I1
sVtaken
p765
I1
sVconsultant
p766
I1
sVdisclose
p767
I1
sVheart
p768
I1
sVcritic
p769
I1
sVsigned
p770
I1
sVwill
p771
I1
sVlanded
p772
I1
sVnewspaperman
p773
I1
sVmeet
p774
I1
sVdisband
p775
I1
sVwere
p776
I1
sVbelieved
p777
I1
sVmaking
p778
I1
sVcracked
p779
I1
sVthrew
p780
I3
sVplaying
p781
I1
sVcalled
p782
I2
sVpromised
p783
I1
sVranted
p784
I1
sVadvises
p785
I2
sVforce
p786
I1
sVwould
p787
I1
sVsees
p788
I2
sVnursing
p789
I1
sVstated
p790
I1
sVis
p791
I5
sVmoved
p792
I2
sVhelped
p793
I1
sVheard
p794
I1
sVrecounted
p795
I1
sVscanned
p796
I1
sVcarved
p797
I1
sVhave
p798
I5
sVwatched
p799
I2
sVseen
p800
I6
sVsaw
p801
I2
sVviewed
p802
I1
sVdeposited
p803
I1
sVforced
p804
I1
sVestimated
p805
I2
sVlet
p806
I1
sVrelaxing
p807
I1
sVauthor
p808
I1
sVsuggest
p809
I3
sVbegan
p810
I2
sVholds
p811
I1
sVable
p812
I1
sVuttered
p813
I1
sVtrample
p814
I1
sVinterested
p815
I1
sVchanged
p816
I1
sVget
p817
I2
sVbrings
p818
I1
sVdismisses
p819
I1
sVstepped
p820
I1
sVsat
p821
I1
sVessayist
p822
I1
sVconcedes
p823
I1
sVplay
p824
I1
sVadded
p825
I12
sV's
p826
I2
sVintended
p827
I2
sVattend
p828
I1
sVsings
p829
I2
sVfelt
p830
I3
sVdirector
p831
I2
sVtries
p832
I1
sVcompared
p833
I1
sVconnected
p834
I1
sVare
p835
I1
sVadds
p836
I1
sVpresident
p837
I1
sVgrow
p838
I2
sVvowed
p839
I1
sVman
p840
I3
sVtelephoned
p841
I1
sVacknowledges
p842
I1
sVkept
p843
I1
sVadmires
p844
I1
sVpossessed
p845
I1
sVvisiting
p846
I1
sVacknowledged
p847
I1
sVspent
p848
I1
sVthink
p849
I1
sVlooked
p850
I1
sVreports
p851
I1
sVdoes
p852
I5
sVdoubted
p853
I2
sVreassured
p854
I1
sVclaims
p855
I1
sVreined
p856
I1
sVresponded
p857
I1
sVtalk
p858
I1
sVleft
p859
I2
ssVprep_behind
p860
(dp861
Vchug
p862
I1
ssVprep_upon
p863
(dp864
Vcame
p865
I1
ssVprep_to
p866
(dp867
Vsaid
p868
I1
sVcompleting
p869
I1
sVtravel
p870
I1
sVtook
p871
I1
sVgo
p872
I1
sVimportant
p873
I1
sVconnected
p874
I1
sVconcluding
p875
I1
sVwent
p876
I1
sVcompleted
p877
I1
sVlisten
p878
I2
ssVtmod
p879
(dp880
Vordered
p881
I1
ssVprep_around
p882
(dp883
Vcarted
p884
I1
ssVposs
p885
(dp886
Vshop
p887
I1
sVcoach
p888
I1
sVshot
p889
I1
sVthigh
p890
I1
sVoffice
p891
I4
sVmove
p892
I1
sVyears
p893
I1
sVattempts
p894
I2
sVassailants
p895
I1
sVstatements
p896
I3
sVinjuries
p897
I2
sVstaff
p898
I1
sVretirement
p899
I2
sVgroup
p900
I1
sVknowledge
p901
I1
sVmother
p902
I2
sVfather
p903
I4
sVinnovations
p904
I1
sVarrest
p905
I2
sVabsence
p906
I1
sVprogram
p907
I3
sVparents
p908
I4
sVhealth
p909
I1
sVally
p910
I1
sVpredecessor
p911
I1
sVpolicies
p912
I1
sVsong
p913
I1
sVprofession
p914
I1
sVhostility
p915
I1
sVaccount
p916
I1
sVschedule
p917
I2
sVchoice
p918
I1
sVinterview
p919
I1
sVgame
p920
I4
sVlivelihood
p921
I1
sVday
p922
I1
sVsuccessor
p923
I2
sVvillage
p924
I1
sVschool
p925
I3
sVsuccess
p926
I1
sVgun
p927
I1
sVoffices
p928
I2
sVteam
p929
I3
sVcolleagues
p930
I2
sVside
p931
I1
sVvision
p932
I2
sVinvestigators
p933
I1
sVattorney
p934
I1
sVdes
p935
I1
sVmethods
p936
I1
sVweight
p937
I1
sVHospital
p938
I2
sVaides
p939
I1
sVprinciples
p940
I1
sVbrother
p941
I1
sVpast
p942
I1
sVState
p943
I1
sVdefense
p944
I1
sVgovernor
p945
I1
sVlawyer
p946
I3
sVyear
p947
I3
sVhome
p948
I2
sVtheory
p949
I1
sVtrick
p950
I1
sVbusiness
p951
I3
sVGovernment
p952
I4
sVdecision
p953
I2
sVcompanions
p954
I1
sVrevolver
p955
I2
sVcomments
p956
I1
sVwhereabouts
p957
I2
sVversion
p958
I1
sVpassion
p959
I2
sVcapital
p960
I1
sVlecture
p961
I1
sVguns
p962
I1
sVruling
p963
I2
sVbody
p964
I1
sVsolo
p965
I1
sVknees
p966
I2
sVitinerary
p967
I1
sVdegree
p968
I1
sVleg
p969
I1
sVattention
p970
I1
sVantics
p971
I1
sVboss
p972
I1
sVguitar
p973
I1
sVjob
p974
I1
sVPresidency
p975
I1
sVaddress
p976
I1
sVmarina
p977
I1
sVmotive
p978
I1
sVpartner
p979
I1
sVhomily
p980
I2
sVcareer
p981
I1
sVgoal
p982
I3
sVcomputers
p983
I1
sVhaunts
p984
I1
sVcontract
p985
I5
sVcounterpart
p986
I1
sVplayers
p987
I2
sVleadership
p988
I1
sVsuggestion
p989
I1
sVtestimony
p990
I1
sVopinion
p991
I1
sVefforts
p992
I4
sVreplacement
p993
I1
sVteammates
p994
I2
sVfirst
p995
I3
sVcomment
p996
I1
sVeyesight
p997
I1
sVown
p998
I2
sVshorthand
p999
I1
sVfamily
p1000
I4
sVheart
p1001
I2
sVsearch
p1002
I1
sVAdministration
p1003
I1
sVson
p1004
I4
sVsympathy
p1005
I1
sVinvolvement
p1006
I1
sVenthusiasm
p1007
I1
sVchurch
p1008
I1
sVmessage
p1009
I1
sVtrust
p1010
I1
sVconference
p1011
I1
sVuse
p1012
I1
sVeye
p1013
I1
sVservice
p1014
I1
sVvisit
p1015
I2
sVcustom
p1016
I1
sVworkshop
p1017
I1
sVcall
p1018
I1
sVinterest
p1019
I1
sVtime
p1020
I2
sVbutler
p1021
I1
sVproposal
p1022
I4
sVlegs
p1023
I1
sVenergy
p1024
I2
sVfirm
p1025
I1
sVeyes
p1026
I2
sVincumbency
p1027
I1
sVstatement
p1028
I4
sVseason
p1029
I1
sVWitherspoon
p1030
I1
sVmemory
p1031
I1
sVremark
p1032
I1
sVpurposes
p1033
I1
sVbroadcast
p1034
I1
sVstick
p1035
I2
sVdoubts
p1036
I1
sVsquad
p1037
I1
sVobservation
p1038
I1
sVhair
p1039
I2
sVcounsel
p1040
I1
sVlook
p1041
I2
sVpresidency
p1042
I1
sVcar
p1043
I1
sVwork
p1044
I1
sVbudget
p1045
I2
sVbed
p1046
I1
sVfight
p1047
I1
sVTwist
p1048
I1
sVrecord
p1049
I4
sVera
p1050
I1
sVdrill
p1051
I1
sVaversion
p1052
I1
sVcards
p1053
I1
sVcontribution
p1054
I1
sVsets
p1055
I1
sVoath
p1056
I2
sVcontrol
p1057
I1
sVpurchases
p1058
I2
sVrequest
p1059
I1
sVmeasure
p1060
I1
sVinfluence
p1061
I1
sVhead
p1062
I1
sVway
p1063
I2
sVaggressiveness
p1064
I1
sVgirlfriend
p1065
I2
sVParty
p1066
I1
sVdress
p1067
I1
sVanswer
p1068
I1
sVrecovery
p1069
I1
sVpowers
p1070
I1
sVadministration
p1071
I3
sVideas
p1072
I1
sVchest
p1073
I1
sVbook
p1074
I2
sVspeech
p1075
I4
sVinventory
p1076
I1
sVforces
p1077
I1
sVband
p1078
I2
sVdepartment
p1079
I1
sVparty
p1080
I1
sVresignation
p1081
I3
sVcontemporaries
p1082
I1
sVfaction
p1083
I1
sVre-election
p1084
I1
sVtenure
p1085
I3
sVyesterday
p1086
I1
sVcollection
p1087
I1
sVblood
p1088
I1
sVsolos
p1089
I1
sVremarks
p1090
I1
sVseasons
p1091
I1
sVfriends
p1092
I2
sVclass
p1093
I1
sVmood
p1094
I1
sVsalary
p1095
I1
sVland
p1096
I1
sVneck
p1097
I1
sVcalls
p1098
I1
sVwife
p1099
I5
sVcoat
p1100
I1
sVcheek
p1101
I2
sVlife
p1102
I3
sVclient
p1103
I6
sVfingers
p1104
I1
sVYear
p1105
I1
sVposition
p1106
I2
sVaddiction
p1107
I1
sVparole
p1108
I1
sVsongs
p1109
I1
ssVdep
p1110
(dp1111
Vused
p1112
I1
sVC.
p1113
I1
sVLEAD
p1114
I2
sVdid
p1115
I1
sVcompany
p1116
I1
sVhaunts
p1117
I1
sVmaster
p1118
I2
sVinterest
p1119
I1
sVGary
p1120
I1
sVGlengarry
p1121
I1
sVdealer
p1122
I1
ssVappos
p1123
(dp1124
Vson
p1125
I1
sVsuspects
p1126
I1
sV2-1
p1127
I1
sVdaughter
p1128
I1
sVbrothers
p1129
I1
sVABC-TV
p1130
I1
sVfather
p1131
I1
sVWisdom
p1132
I1
sVspokesman
p1133
I2
sVsuspect
p1134
I2
sVJoe
p1135
I1
sVlawyer
p1136
I1
sVpresident
p1137
I1
sVMorton
p1138
I1
sVlinebacker
p1139
I1
sVhim
p1140
I2
ssVdobj
p1141
(dp1142
Vprevent
p1143
I1
sVliked
p1144
I1
sVshot
p1145
I1
sVsucceeds
p1146
I1
sVrecognize
p1147
I1
sVsee
p1148
I1
sVpromise
p1149
I1
sVallowed
p1150
I1
sVseen
p1151
I2
sVsucceeding
p1152
I1
sVcongratulate
p1153
I1
sVcompared
p1154
I1
sVmistreated
p1155
I1
sVordering
p1156
I2
sVbeaten
p1157
I1
sVvisit
p1158
I1
sVdismissed
p1159
I1
sVinstructed
p1160
I1
sVcomparing
p1161
I1
sVhonored
p1162
I1
sVquestioned
p1163
I1
sVholding
p1164
I1
sVtoss
p1165
I1
sVexpecting
p1166
I1
sVrecruited
p1167
I2
sVsent
p1168
I1
sVtold
p1169
I3
sVdrafted
p1170
I1
sVenable
p1171
I1
sVled
p1172
I1
sVforced
p1173
I1
sVdefy
p1174
I2
sVblaming
p1175
I1
sVsaid
p1176
I2
sVrecalled
p1177
I1
sVbothering
p1178
I1
sVput
p1179
I1
sVwanted
p1180
I1
sVrespect
p1181
I1
sVbuilding
p1182
I1
sVtelephoned
p1183
I1
sVCoach
p1184
I2
sVprotecting
p1185
I1
sVlike
p1186
I1
sVlost
p1187
I2
sVpresented
p1188
I2
sVasked
p1189
I1
sVadmire
p1190
I1
sVreplaced
p1191
I3
sVallow
p1192
I2
sVsearched
p1193
I1
sVorder
p1194
I1
ssVprep_on
p1195
(dp1196
Vcentered
p1197
I1
sVmake
p1198
I1
ssVpobj
p1199
(dp1200
Vrunning
p1201
I1
sVrejected
p1202
I1
ssViobj
p1203
(dp1204
Vnamed
p1205
I1
sVmade
p1206
I1
sVearned
p1207
I1
sVtook
p1208
I1
sVcost
p1209
I1
sVgiven
p1210
I1
ssVprep_in
p1211
(dp1212
Vnamed
p1213
I1
sVforce
p1214
I1
sVplayed
p1215
I1
sVraged
p1216
I1
sVHospital
p1217
I1
sVhotels
p1218
I1
sVsaid
p1219
I1
sVbased
p1220
I4
sVappear
p1221
I1
sVsit
p1222
I1
sVmake
p1223
I1
sVHotel
p1224
I1
sVlive
p1225
I1
sVblaze
p1226
I2
sVconvention
p1227
I1
sVthrew
p1228
I1
sVfirm
p1229
I1
sVoffering
p1230
I1
sVfire
p1231
I1
sVfiled
p1232
I1
sVdescribed
p1233
I1
sVthose
p1234
I1
sVrevise
p1235
I1
ssVprep_of
p1236
(dp1237
VDivision
p1238
I1
sVsons
p1239
I1
sVdeath
p1240
I1
sVJustices
p1241
I1
sVBible
p1242
I1
sVMuseum
p1243
I3
sVreach
p1244
I1
sVcurator
p1245
I1
sVmember
p1246
I1
sVfund
p1247
I1
sVBianchi
p1248
I1
sVstatue
p1249
I2
sVDeering
p1250
I1
sVsupporter
p1251
I1
sVSecretary
p1252
I2
ssVprep_than
p1253
(dp1254
Vstand
p1255
I1
ssVroot
p1256
(dp1257
VROOT
p1258
I14
sssS'female'
p1259
(dp1260
Vprep_since
p1261
(dp1262
Vclaimed
p1263
I1
sVdeadlocked
p1264
I1
sVforce
p1265
I1
ssVprep_with
p1266
(dp1267
VAmerica
p1268
I1
sVdeal
p1269
I1
ssVagent
p1270
(dp1271
Vexpressed
p1272
I1
ssVccomp
p1273
(dp1274
Vsaid
p1275
I1
ssVnsubjpass
p1276
(dp1277
Vdefeated
p1278
I1
sVbecome
p1279
I1
sVpleased
p1280
I1
sVsurvived
p1281
I1
sVemasculated
p1282
I1
ssVprep_from
p1283
(dp1284
Vrise
p1285
I1
sVpercent
p1286
I1
sVDow
p1287
I1
sVdeceleration
p1288
I1
sVfarmers
p1289
I1
ssVamod
p1290
(dp1291
Vobstreperous
p1292
I2
ssVnn
p1293
(dp1294
VBlue
p1295
I1
sVHrudey
p1296
I1
sVcoach
p1297
I1
sVFitzgerald
p1298
I1
sVMidler
p1299
I2
sVDaniel
p1300
I1
sVdeadline
p1301
I1
sVchair
p1302
I4
sVcaptain
p1303
I1
sVBrown
p1304
I2
sVStenerud
p1305
I1
sVsheriff
p1306
I2
sVCompany
p1307
I5
sVClaus
p1308
I3
sVBurstyn
p1309
I1
sVYork
p1310
I1
sVDorn
p1311
I2
sVDay
p1312
I1
sVMcGarvey
p1313
I3
sVPacheco
p1314
I1
sVAdminsitration
p1315
I1
sVLouis
p1316
I1
sVCrumm
p1317
I2
sVgame
p1318
I1
sVTech
p1319
I3
sVleases
p1320
I1
sVJersey
p1321
I1
sVManufacturing
p1322
I1
sVMoore
p1323
I2
sVCohen
p1324
I1
sVColony
p1325
I1
sVO'Dae
p1326
I1
sVCartwright
p1327
I2
sVsecurities
p1328
I1
sVErixon
p1329
I1
sVRaptopoulos
p1330
I1
sVStanley
p1331
I1
sVRaiders
p1332
I1
sVlogs
p1333
I1
sVGilbert
p1334
I1
sVWashington
p1335
I1
sVMuseum
p1336
I1
sVSystem
p1337
I2
sVState
p1338
I5
sVPullman-Peabody
p1339
I1
sVWhite
p1340
I1
sVGlynn
p1341
I1
sVJohnson
p1342
I1
sVWilliams
p1343
I1
sVSherrill
p1344
I1
sVCitrus
p1345
I1
sVcolonel
p1346
I2
sVdecision
p1347
I1
sVHammond
p1348
I2
sVBrett
p1349
I1
sVshares
p1350
I1
sVWisdom
p1351
I1
sVcompanies
p1352
I1
sVWinters
p1353
I1
sVSpitler
p1354
I1
sVOrchard
p1355
I1
sVFairstein
p1356
I1
sVLund
p1357
I1
sVTimes
p1358
I1
sVhours
p1359
I1
sVViner
p1360
I1
sVBenstock
p1361
I1
sVTropicana
p1362
I1
sVClara
p1363
I2
sVMorris
p1364
I3
sVcontract
p1365
I1
sVHart
p1366
I1
sVUse
p1367
I1
sVRepublicans
p1368
I1
sVCastaneda
p1369
I1
sVRadl
p1370
I2
sVAdministration
p1371
I9
sVadministrations
p1372
I1
sVPanov
p1373
I3
sVMeadows
p1374
I1
sVByrne
p1375
I1
sVMcGillion
p1376
I1
sVEnterprises
p1377
I2
sVSTILES
p1378
I2
sVSimmons
p1379
I1
sVDove
p1380
I1
sVstore
p1381
I1
sVmornings
p1382
I1
sVcollapse
p1383
I1
sVFlanagan
p1384
I2
sVClaire
p1385
I1
sVprices
p1386
I1
sVGeng
p1387
I2
sVBareli
p1388
I1
sVRoad
p1389
I1
sVDanzig
p1390
I1
sVZedong
p1391
I1
sVBOWL
p1392
I1
sVBowls
p1393
I1
sVAuburn
p1394
I1
sVera
p1395
I1
sVChurch
p1396
I1
sVnewspaper
p1397
I1
sVAvenue
p1398
I1
sVCourt
p1399
I2
sVOakley
p1400
I1
sVParks
p1401
I1
sVrally
p1402
I1
sVPinkett
p1403
I1
sVWilliamson
p1404
I1
sVcourt
p1405
I1
sVGarden
p1406
I2
sVClub
p1407
I1
sVPrice
p1408
I1
sVRafferty
p1409
I1
sVrules
p1410
I2
sVJordan
p1411
I1
sVMcMartin
p1412
I2
sVCorp.
p1413
I1
sVMullins
p1414
I1
sVquarterback
p1415
I1
sVBuckey
p1416
I6
sVOrlov
p1417
I1
sVRyan
p1418
I1
sVgifts
p1419
I1
sVHagedorn
p1420
I1
sVCharged
p1421
I1
sVnight
p1422
I1
sVAttorney
p1423
I1
sVCafe
p1424
I2
sVBowl
p1425
I10
sVMiller
p1426
I1
sVMcNamara
p1427
I4
sVKeller
p1428
I1
sVRobinson
p1429
I1
ssVprep_for
p1430
(dp1431
Vadvantageous
p1432
I1
sVcalls
p1433
I1
sVoffer
p1434
I1
sVdid
p1435
I1
sVcompleted
p1436
I1
sVCitizens
p1437
I2
sVfeel
p1438
I1
sVplanned
p1439
I1
sVoccasion
p1440
I1
sVwanted
p1441
I1
sVbest
p1442
I1
ssVconj_and
p1443
(dp1444
VEurope
p1445
I2
sVJohn
p1446
I1
sVCaribbean
p1447
I2
sVWolverines
p1448
I1
sVCorporation
p1449
I1
sVgame
p1450
I1
sVO'Dae
p1451
I1
sVmember
p1452
I1
sVCiticorp
p1453
I1
sVBritain
p1454
I1
sVCalifornia
p1455
I1
sVEarth
p1456
I4
sVPresident
p1457
I1
sVTrust
p1458
I2
ssVprep_through
p1459
(dp1460
Vpaid
p1461
I1
sVholidays
p1462
I1
ssVprep_at
p1463
(dp1464
Vbecome
p1465
I1
sVforged
p1466
I1
ssVnsubj
p1467
(dp1468
Vshortened
p1469
I1
sVsays
p1470
I1
sVbegun
p1471
I1
sVswept
p1472
I1
sVcan
p1473
I1
sVappeared
p1474
I1
sVdreamed
p1475
I1
sVpurveys
p1476
I1
sVunderstood
p1477
I1
sVdecided
p1478
I2
sVhave
p1479
I1
sVseen
p1480
I1
sVgiven
p1481
I1
sVsaid
p1482
I29
sVspoke
p1483
I1
sVverify
p1484
I1
sVwiped
p1485
I1
sVhad
p1486
I2
sVchooses
p1487
I1
sVexpressed
p1488
I1
sVanswered
p1489
I1
sVsuffered
p1490
I1
sVunable
p1491
I2
sVgrew
p1492
I1
sVchairman
p1493
I1
sVprovides
p1494
I1
sVentered
p1495
I1
sVhas
p1496
I3
sVannounced
p1497
I1
sVtold
p1498
I2
sVstarted
p1499
I1
sVdo
p1500
I1
sV's
p1501
I1
sVknows
p1502
I1
sVstationed
p1503
I1
sVregroup
p1504
I1
sVpainted
p1505
I1
sVpropose
p1506
I1
sVfelt
p1507
I1
sVdiffer
p1508
I1
sVforester
p1509
I1
sVgreeted
p1510
I1
sVdirector
p1511
I1
sVlicks
p1512
I2
sVarrived
p1513
I1
sVrejected
p1514
I1
sVkicks
p1515
I1
sVwanted
p1516
I3
sVcontinued
p1517
I1
sVdoubling
p1518
I1
sVdied
p1519
I1
sVappear
p1520
I1
sVapplied
p1521
I1
sVreceived
p1522
I1
sVguarantees
p1523
I1
sVlost
p1524
I1
sVlight
p1525
I1
sVcould
p1526
I1
sVjoined
p1527
I1
sVcreates
p1528
I1
sVbecame
p1529
I2
sVform
p1530
I1
sVplanned
p1531
I1
sVpay
p1532
I1
sVwent
p1533
I1
sVintroduced
p1534
I1
sVmaker
p1535
I1
sVcame
p1536
I1
sVknow
p1537
I1
ssVprep_between
p1538
(dp1539
Vtickets
p1540
I1
sVmessages
p1541
I1
sVgreetings
p1542
I1
ssVtmod
p1543
(dp1544
Vsaid
p1545
I1
sVomen
p1546
I2
sVsplit
p1547
I1
sVbegan
p1548
I1
sVreleased
p1549
I1
sVgame
p1550
I1
sVdropped
p1551
I1
sVgain
p1552
I1
sVsupport
p1553
I1
sVdied
p1554
I2
sVtake
p1555
I1
ssVposs
p1556
(dp1557
Vstores
p1558
I2
sVcampaign
p1559
I1
sVpeople
p1560
I1
sVhouse
p1561
I1
sVson
p1562
I2
sVRepublic
p1563
I1
sVdispleasure
p1564
I1
sVfamily
p1565
I1
sVopenness
p1566
I1
sVqueries
p1567
I1
sVmother
p1568
I5
sVbombing
p1569
I1
sVfeelings
p1570
I1
sVRaymond
p1571
I1
sVGovernment
p1572
I1
sVcolonel
p1573
I1
sVdecision
p1574
I1
sVfather
p1575
I2
sVcomments
p1576
I1
sVreligion
p1577
I1
sVstate
p1578
I2
sVscore
p1579
I1
sVspeech
p1580
I1
sVsuperstar
p1581
I1
sVstatement
p1582
I3
sVparents
p1583
I2
sVstock
p1584
I2
sVbuilding
p1585
I1
sVcustomers
p1586
I1
sVfamilies
p1587
I1
sVcritics
p1588
I1
sVFollies
p1589
I1
sVgranddaughter
p1590
I1
sVbroadcast
p1591
I1
sVstep
p1592
I1
sVsons
p1593
I1
sVaddress
p1594
I1
sVend
p1595
I1
sVcities
p1596
I1
sVlobby
p1597
I2
sVpool
p1598
I1
sVfurniture
p1599
I3
sVceramicists
p1600
I1
sVsister
p1601
I1
sVdaughter
p1602
I1
sVname
p1603
I3
sVadoption
p1604
I1
sVpopularity
p1605
I1
sVact
p1606
I1
sVradio
p1607
I1
sVAdministrations
p1608
I1
sVhusband
p1609
I5
sVhistory
p1610
I1
ssVxcomp
p1611
(dp1612
Vbecome
p1613
I1
ssVprep_to
p1614
(dp1615
Vweighing
p1616
I1
sVtravel
p1617
I1
sVbringing
p1618
I1
sVroad
p1619
I1
ssVdep
p1620
(dp1621
VSimmons
p1622
I1
sVhome
p1623
I1
sVCorrection
p1624
I3
sVobjects
p1625
I2
sVLEAD
p1626
I2
ssVappos
p1627
(dp1628
Vdeath
p1629
I1
sVComptroller
p1630
I1
sVwife
p1631
I1
sVWisdom
p1632
I1
sVchants
p1633
I1
sVmother
p1634
I2
sVInc.
p1635
I2
sVDame
p1636
I1
ssVdobj
p1637
(dp1638
Vbearing
p1639
I1
sVkeeping
p1640
I1
sVsaid
p1641
I1
sVdelivered
p1642
I2
sVlist
p1643
I1
sVgive
p1644
I1
sVshare
p1645
I2
sVquit
p1646
I1
sVkeep
p1647
I1
sVsee
p1648
I2
sVdefeat
p1649
I1
sVput
p1650
I1
sVsipping
p1651
I1
sVoverwhelmed
p1652
I1
sVspend
p1653
I1
ssVprep_on
p1654
(dp1655
Vterminated
p1656
I1
sVYorkers
p1657
I1
sVsold
p1658
I1
sVtook
p1659
I1
sVMetro-North
p1660
I1
sVcalled
p1661
I1
sVemphasis
p1662
I2
sVprinted
p1663
I1
sVHospital
p1664
I1
sVgathered
p1665
I1
sVfound
p1666
I1
sVchildren
p1667
I1
sVRoad
p1668
I1
ssVpobj
p1669
(dp1670
Vdecided
p1671
I1
sVin
p1672
I1
ssVprep_in
p1673
(dp1674
Vwordsmith
p1675
I2
sVretired
p1676
I1
sVdemonstrations
p1677
I1
sVdropped
p1678
I1
sVtalks
p1679
I1
sVbuffeted
p1680
I1
sVeven
p1681
I1
sVLawyers
p1682
I1
sVawarded
p1683
I1
sVchoose
p1684
I1
sVsurfaced
p1685
I1
sVappearances
p1686
I1
sVannounced
p1687
I1
sVcombined
p1688
I1
sVscheduled
p1689
I1
sVlife
p1690
I2
sVAge
p1691
I1
sVeffect
p1692
I2
sVdelivery
p1693
I1
sVsituation
p1694
I1
sVarrested
p1695
I3
sVjoined
p1696
I1
sVsigned
p1697
I1
sVaudience
p1698
I1
sVoffices
p1699
I1
sVHome
p1700
I2
sVelection
p1701
I1
ssVprep_of
p1702
(dp1703
VArchdiocese
p1704
I1
sVend
p1705
I1
sVfurnishings
p1706
I1
sVFederation
p1707
I2
sVUniversity
p1708
I1
sVOchoa
p1709
I1
sVZiemann
p1710
I1
sVearnings
p1711
I1
sVMcFarland
p1712
I2
sVVoice
p1713
I7
sVoath
p1714
I2
sVBurdick
p1715
I1
ssVroot
p1716
(dp1717
VROOT
p1718
I8
ssVconj_but
p1719
(dp1720
VGrey
p1721
I1
ssVconj_or
p1722
(dp1723
Vhis
p1724
I1
sss.