(dp0
S'male'
p1
(dp2
Vprep_against
p3
(dp4
Vunited
p5
I2
sVseemed
p6
I2
ssVprep_by
p7
(dp8
Varrangements
p9
I1
sVsack
p10
I1
sVfilm
p11
I1
ssVprep_with
p12
(dp13
Vwrong
p14
I1
ssVparataxis
p15
(dp16
Vare
p17
I1
ssVagent
p18
(dp19
Vaccompanied
p20
I1
sVconducted
p21
I1
sVmade
p22
I1
sVplayed
p23
I2
ssVprep_into
p24
(dp25
VDvorak
p26
I1
ssVprep_than
p27
(dp28
Vworse
p29
I1
ssVconj_or
p30
(dp31
Vhe
p32
I1
ssVnn
p33
(dp34
VPerle
p35
I1
sVHarper
p36
I1
sVPelt
p37
I2
sVShultz
p38
I3
sVCowell
p39
I1
sVBoyle
p40
I2
sVBrown
p41
I2
sVMcLaughlin
p42
I1
sVStepien
p43
I2
sVMarfisi
p44
I1
sVHafetz
p45
I1
sVSpadaccia
p46
I1
sVShweder
p47
I1
sVCasey
p48
I1
sVRiesen
p49
I1
sVBolt
p50
I1
sVBeame
p51
I1
sVIrvin
p52
I1
sVVa.
p53
I1
sVCarkner
p54
I1
sVDurenberger
p55
I1
sVFerry
p56
I1
sVShafran
p57
I1
sVMoseley
p58
I2
sVMcNeil
p59
I2
sVMcCarthy
p60
I1
sVMagnotta
p61
I2
sVCarlo
p62
I1
sVHall
p63
I2
sVHutton
p64
I1
sVBoatner
p65
I1
sVRice
p66
I1
sVRiggins
p67
I1
sVTucker
p68
I2
sVFrancis
p69
I2
sVBahr
p70
I1
sVStalin
p71
I2
sVFerraro
p72
I1
sVBaird
p73
I1
sVRybicki
p74
I1
sVGalotti
p75
I1
sVLyons
p76
I2
sVClark
p77
I1
sVShea
p78
I2
sVAvenue
p79
I2
sVPrezioso
p80
I1
sVDole
p81
I1
sVRivers
p82
I1
sVHome
p83
I2
sVSantucci
p84
I1
sVRichmond
p85
I1
sVMcNab
p86
I1
sVBrowns
p87
I4
sVSilvers
p88
I1
sVKleinman
p89
I1
sVAugust
p90
I1
sVinterception
p91
I1
sVWilkins
p92
I4
sVMatters
p93
I1
sVCory
p94
I1
sVtoday
p95
I1
sVManes
p96
I1
sVCarreras
p97
I1
sVHayes
p98
I1
sVMorrow
p99
I2
sVBarr
p100
I1
sVGastineau
p101
I1
sVWhidden
p102
I1
sVRosenberg
p103
I1
sVFamily
p104
I2
sVKiely
p105
I1
sVAarons
p106
I2
sVChappaqua
p107
I1
sVWalsh
p108
I2
sVO'Brien
p109
I1
sVStaudt
p110
I1
sVByrd
p111
I1
sVSpeakes
p112
I1
sVMcDavitt
p113
I1
sVJacobsen
p114
I1
sVWilliamson
p115
I1
sVBabych
p116
I1
sVCarpenter
p117
I1
sVGallagher
p118
I1
sVBlair
p119
I1
sVBourque
p120
I1
sVBiaggi
p121
I2
sVJasinowski
p122
I1
sVGriggs
p123
I1
sVCarlucci
p124
I4
sVKelly
p125
I1
sVBrezenoff
p126
I1
sVbakery
p127
I2
sVBillington
p128
I1
sVTruman
p129
I2
sVWilson
p130
I1
sVDemoff
p131
I1
sVSmith
p132
I1
sVWittman
p133
I1
sVPhillips
p134
I2
sVWhite
p135
I1
sVBennion
p136
I1
sVSchroeder
p137
I1
sVFriedman
p138
I1
sVLehman
p139
I1
sVHalvorsen
p140
I1
sVDoyle
p141
I1
sVDye
p142
I1
sVLendl
p143
I1
sVKantrowitz
p144
I2
sVAshley
p145
I1
sVKosar
p146
I3
sVEyre
p147
I2
sVHarrington
p148
I1
sVWebster
p149
I1
sVSwaggart
p150
I1
sVSaunders
p151
I1
sVBenigno
p152
I1
sVPaulson
p153
I1
sVinterview
p154
I2
sVLichtblau
p155
I1
sVRappaport
p156
I1
sVKensil
p157
I1
sVPederson
p158
I1
sVFerrucci
p159
I1
sVTheater
p160
I1
sVN.Y.
p161
I2
sVCanby
p162
I1
sVKinsler
p163
I1
sVNixon
p164
I1
sVEvans
p165
I1
sV49ers
p166
I2
sVsouth
p167
I2
sVSondheim
p168
I1
sVVoss
p169
I1
sVSimmer
p170
I1
sVRickman
p171
I1
sVLevy
p172
I1
sVNorth
p173
I2
sVCavaliers
p174
I2
sVDerwinksi
p175
I1
sVHoffman
p176
I1
sVFrost
p177
I1
sVSaint-Denis
p178
I1
sVCummings
p179
I2
sVModell
p180
I2
sVAiello
p181
I2
sVSulliman
p182
I1
sVPatrick
p183
I1
sVCleary
p184
I1
sVParkway
p185
I1
sVAmeruso
p186
I1
sVMeese
p187
I1
sVRevel
p188
I1
sVMelnyk
p189
I1
sVLeestma
p190
I1
sVMarcos
p191
I2
sVSimms
p192
I2
sVLadouceur
p193
I1
sVPrice
p194
I1
sVAlbert
p195
I1
sVCarthon
p196
I1
sVArab
p197
I2
sVGallery
p198
I1
sVKeans
p199
I1
sVHoglund
p200
I1
sVOlivier
p201
I1
sVPaige
p202
I1
sVgallery
p203
I1
sVMehl
p204
I1
sVEsposito
p205
I1
sVcamp
p206
I2
sVLaidlaw
p207
I1
sVLindenauer
p208
I1
sVRobinson
p209
I2
sVHerberling
p210
I1
sVBroncos
p211
I2
sVshot
p212
I1
sVphenomenon
p213
I1
sVTwain
p214
I1
sVLarouche
p215
I2
sVHill
p216
I2
sVStallone
p217
I1
sVMarks
p218
I2
sVKleinendorst
p219
I1
sVRegan
p220
I1
sVHenderson
p221
I1
sVGash
p222
I1
sVMcNealy
p223
I1
sVGatlen
p224
I1
sVWalton
p225
I2
sVDickson
p226
I2
sVGiuliani
p227
I1
sVQuick
p228
I1
sVIrving
p229
I1
sVKirnan
p230
I1
sVLaird
p231
I1
sVVanbiesbrouck
p232
I1
sVSullivan
p233
I1
sVRandol
p234
I1
sVAusten
p235
I1
sVAllen
p236
I2
sVJackson
p237
I3
sVShimba
p238
I1
sVWright
p239
I1
sVd'Amboise
p240
I1
sVLubensky
p241
I1
sVStanislaw
p242
I1
sVJovanovich
p243
I1
sVHayatt
p244
I1
sVGood
p245
I1
sVthreats
p246
I1
sVHopkins
p247
I1
sVSirica
p248
I1
sVStoddard
p249
I2
sVfans
p250
I1
sVJackman
p251
I1
sVWeiland
p252
I1
sVJohnson
p253
I2
sVWachtel
p254
I1
sVLindbergh
p255
I2
sVHarte
p256
I1
sVEwing
p257
I2
sVrestaurant
p258
I1
sVcareer
p259
I1
sVArcher
p260
I1
sVSchottenheimer
p261
I1
sVGraham
p262
I1
sVgrounds
p263
I1
sVLill
p264
I2
sVTemple
p265
I4
sVAmburg
p266
I2
sVFratello
p267
I2
sVCarr
p268
I1
sVWaters
p269
I2
sVRobbins
p270
I1
sVDineen
p271
I1
sVHynes
p272
I1
sVLynch
p273
I1
sVGriffen
p274
I1
sVConfalone
p275
I1
sVMcKegney
p276
I1
sVHuerta
p277
I1
sVlife
p278
I1
sVAdams
p279
I1
sVLivingston
p280
I1
sVSteinberg
p281
I2
sVCrane
p282
I1
sVBlandon
p283
I1
sVReagan
p284
I2
sVCollege
p285
I1
sVFallick
p286
I1
sVChurch
p287
I1
sVBattle
p288
I1
sVEisele
p289
I5
sVMulhearn
p290
I1
sVIndustries
p291
I1
sVWarfield
p292
I1
sVEnrile
p293
I1
sVJoffe
p294
I1
sVSinatra
p295
I1
sVRubin
p296
I1
sVBeach
p297
I1
sVHope
p298
I1
sVAbrams
p299
I1
sVZimmerman
p300
I1
sVWoodruff
p301
I1
sVDrescher
p302
I1
sVCar
p303
I1
sVoil
p304
I1
sVInstitute
p305
I1
sVOates
p306
I1
sVLazar
p307
I1
sVReid
p308
I1
sVMorris
p309
I5
sVDreith
p310
I1
sVSaura
p311
I1
sVBarbarossa
p312
I1
sVGurayev
p313
I2
sVRollins
p314
I1
sVGreengrass
p315
I4
sVBoren
p316
I1
sVPoindexter
p317
I2
sVRupp
p318
I2
sVAspin
p319
I1
sVKlecko
p320
I1
sVCompany
p321
I1
sVRatajczak
p322
I1
sVIoffe
p323
I1
sVPhilip
p324
I1
sVStudent
p325
I1
sVMonk
p326
I1
sVBeutel
p327
I1
sVHofstadter
p328
I1
sVProuty
p329
I1
sVBarker
p330
I1
sVCartwright
p331
I1
sVFink
p332
I1
sVSTONE
p333
I2
sVElway
p334
I1
sVDangerfield
p335
I2
sVCapasso
p336
I1
sVMiscavige
p337
I1
sVProsecutor
p338
I1
sVDraper
p339
I2
sVBryant
p340
I1
sVQuilter
p341
I1
sVLavelli
p342
I1
sVMadison
p343
I1
sVTaylor
p344
I1
sVSecord
p345
I1
sVLambert
p346
I1
sVmilitia
p347
I1
sVSutphen
p348
I1
sVCup
p349
I1
sVDriver
p350
I1
sVRochman
p351
I1
sVEgner
p352
I1
sVStadium
p353
I3
sVHoden
p354
I1
sVTheismann
p355
I1
sVarea
p356
I1
sVTuroff
p357
I1
sVSutton
p358
I1
sVnorth
p359
I1
sVJohnston
p360
I2
sVBell
p361
I3
sVKampelman
p362
I2
sVoffsides
p363
I1
sVMancuso
p364
I2
sVHubbard
p365
I1
sVLauder
p366
I1
sVReale
p367
I1
sVCarson
p368
I1
sVEdward
p369
I2
sVConner
p370
I4
sVMcCallum
p371
I1
sVJr.
p372
I12
sVXXIII
p373
I2
sVColo.
p374
I1
sVbranch
p375
I1
sVdevelopers
p376
I2
sVDrive
p377
I4
sVGreschner
p378
I1
sVPease
p379
I1
sVStewart
p380
I1
sVSparrow
p381
I1
sVCharles
p382
I1
ssVprep_including
p383
(dp384
Vairports
p385
I1
ssVprep_for
p386
(dp387
Vtough
p388
I2
sVfair
p389
I1
sVSupport
p390
I1
sVwaiting
p391
I1
sVtime
p392
I1
sVstore
p393
I2
ssVconj_and
p394
(dp395
Vmurder
p396
I1
sVthreats
p397
I1
sVAugust
p398
I1
sVJohnson
p399
I1
sVSeymour
p400
I2
sVReale
p401
I1
sVDante
p402
I1
sVRangers
p403
I1
sVOtto
p404
I1
sVsleep
p405
I1
sVYork
p406
I1
sVMarino
p407
I1
sVBaros
p408
I1
sVlawyers
p409
I1
sVhim
p410
I2
sVdaughters
p411
I1
sVsubject
p412
I1
ssVprep_through
p413
(dp414
Vmet
p415
I1
ssVprep_at
p416
(dp417
Vserving
p418
I1
sVfighting
p419
I1
sVplayed
p420
I1
ssVnsubj
p421
(dp422
Vmanaged
p423
I1
sVshow
p424
I1
sVbeing
p425
I1
sVdeveloped
p426
I1
sVpointed
p427
I2
sVsaves
p428
I1
sVdefended
p429
I1
sVdiscovered
p430
I1
sVheld
p431
I1
sVsustained
p432
I1
sVgo
p433
I1
sVshrugged
p434
I1
sVsaved
p435
I1
sVassembled
p436
I2
sVmake
p437
I1
sVreferring
p438
I1
sVhad
p439
I13
sVsquirmed
p440
I1
sVspread
p441
I1
sVdevotes
p442
I1
sVannounce
p443
I1
sVhas
p444
I5
sVagreed
p445
I1
sVsent
p446
I1
sVrecuperating
p447
I1
sVdo
p448
I3
sVgood
p449
I1
sVadded
p450
I7
sVhoping
p451
I1
sVthrived
p452
I1
sVfeels
p453
I1
sVknow
p454
I1
sVsupervise
p455
I1
sVdoubted
p456
I1
sVawaiting
p457
I3
sVcontinued
p458
I2
sVexpedite
p459
I1
sVpartnered
p460
I1
sVlike
p461
I5
sVdid
p462
I4
sVnotes
p463
I1
sVjoined
p464
I1
sVremove
p465
I1
sVtry
p466
I1
sVnotified
p467
I1
sVmajored
p468
I1
sVdenounces
p469
I2
sVserved
p470
I2
sVwent
p471
I2
sVwoven
p472
I1
sVwrote
p473
I1
sVdeclared
p474
I1
sVset
p475
I2
sVsays
p476
I8
sVobserves
p477
I2
sVdirecting
p478
I1
sVdead
p479
I1
sVfold
p480
I2
sVtaught
p481
I1
sVobtains
p482
I2
sVpicked
p483
I2
sVrun
p484
I1
sVestablished
p485
I2
sVsaid
p486
I82
sVopened
p487
I1
sVpressured
p488
I1
sVavoid
p489
I1
sVcelebrated
p490
I1
sVagrees
p491
I1
sVbelittled
p492
I1
sVremembered
p493
I2
sVdoes
p494
I1
sVRepresentative
p495
I1
sVtends
p496
I1
sVappeal
p497
I1
sVzany/He
p498
I1
sVannounced
p499
I1
sVtold
p500
I3
sVled
p501
I1
sVchose
p502
I1
sVslur
p503
I1
sVforgive
p504
I1
sVdrew
p505
I1
sVrefused
p506
I2
sVmet
p507
I3
sVexplore
p508
I1
sVpossibility
p509
I1
sVput
p510
I1
sVstay
p511
I1
sVchange
p512
I1
sVspoke
p513
I1
sVgained
p514
I3
sVreceived
p515
I1
sVgreat
p516
I1
sVcarried
p517
I1
sVdeserved
p518
I1
sVhealthy
p519
I1
sVinvited
p520
I1
sVdiscussed
p521
I1
sVurged
p522
I1
sVflipped
p523
I2
sVaccomplished
p524
I1
sVbecame
p525
I1
sVfaces
p526
I1
sVwon
p527
I1
sVthink
p528
I2
sVretired
p529
I2
sVheaded
p530
I2
sVappeared
p531
I4
sVowned
p532
I2
sVone
p533
I1
sVbrought
p534
I1
sVmaintained
p535
I1
sVtalked
p536
I1
sVdone
p537
I2
sVlearning
p538
I1
sVold
p539
I4
sVvolunteered
p540
I1
sVdrove
p541
I3
sVconsiders
p542
I1
sVlowest-paid
p543
I1
sVthwarted
p544
I1
sVstanding
p545
I1
sVsave
p546
I1
sVkiller
p547
I1
sVwanted
p548
I2
sVdescribed
p549
I2
sVKnows
p550
I2
sVwould
p551
I1
sVremains
p552
I1
sVangry
p553
I1
sVinformed
p554
I1
sVadopted
p555
I1
sVplayer
p556
I2
sVconfident
p557
I2
sVgoing
p558
I2
sVeditor
p559
I1
sVtaken
p560
I1
sVdwell
p561
I2
sVwas
p562
I3
sVspeaking
p563
I1
sVwants
p564
I1
sVthrown
p565
I1
sVknows
p566
I1
sVstarted
p567
I3
sVreimburse
p568
I1
sVabout
p569
I1
sVrejected
p570
I1
sVhoped
p571
I1
sVfinished
p572
I1
sVpart
p573
I1
sVgain
p574
I1
sVkept
p575
I1
sVbegins
p576
I1
sVescaped
p577
I3
sVgrew
p578
I1
sVlook
p579
I1
sVunderstood
p580
I1
sVpursue
p581
I1
sVinsists
p582
I1
sVworth
p583
I1
sVwill
p584
I1
sVwere
p585
I1
sVbelieved
p586
I2
sVgave
p587
I1
sVcalled
p588
I3
sVperformed
p589
I1
sVwant
p590
I2
sVplayed
p591
I2
sVran
p592
I1
sVis
p593
I2
sVturned
p594
I2
sVRonnie
p595
I1
sVhelped
p596
I1
sVtalking
p597
I2
sVcontinues
p598
I2
sVdemanded
p599
I1
sVhave
p600
I2
sVready
p601
I1
sVseen
p602
I2
sVtells
p603
I1
sVlooked
p604
I1
sVend
p605
I1
sVReturned
p606
I1
sVperform
p607
I1
sVallow
p608
I1
sVbegan
p609
I1
sVable
p610
I1
sVMinister
p611
I1
sVholding
p612
I1
sVattempted
p613
I1
sVgets
p614
I1
sVheadstrong
p615
I1
sVscored
p616
I1
sVused
p617
I1
sV's
p618
I1
sVtried
p619
I1
sVfelt
p620
I2
sVtook
p621
I1
sVtries
p622
I1
sVhired
p623
I1
sVpurpose
p624
I1
sVsmiled
p625
I1
sVpresident
p626
I1
sVpleaded
p627
I1
sVhurt
p628
I1
sVexcited
p629
I1
sVmissed
p630
I1
sVSays
p631
I1
sVdriving
p632
I1
sVconscious
p633
I1
sVwins
p634
I1
sVacknowledged
p635
I1
sVfinds
p636
I1
sVthought
p637
I2
sVcomplainer
p638
I1
sVtall
p639
I1
sVsounded
p640
I1
sVlamented
p641
I1
sVleft
p642
I1
ssVprep_to
p643
(dp644
Vright
p645
I1
sVimportant
p646
I1
sVsays
p647
I1
sVcommunicated
p648
I1
sVpower
p649
I1
ssVtmod
p650
(dp651
Vis
p652
I1
ssVposs
p653
(dp654
Vnow
p655
I1
sVconcept
p656
I2
sVoffice
p657
I3
sVchances
p658
I1
sVadministration
p659
I2
sVdesk
p660
I1
sVyears
p661
I1
sVperformance
p662
I2
sVwell-being
p663
I1
sVsigns
p664
I1
sVstaff
p665
I1
sVopponent
p666
I3
sVpenchant
p667
I1
sVgroup
p668
I1
sVknowledge
p669
I1
sVfather
p670
I1
sVstarters
p671
I1
sVarrest
p672
I1
sVproduction
p673
I1
sVsuite
p674
I2
sVfeats
p675
I1
sVties
p676
I1
sVrecuperation
p677
I1
sVreturn
p678
I1
sVassistant
p679
I2
sVbid
p680
I2
sVgame
p681
I3
sVupdates
p682
I1
sVhands
p683
I1
sVstunt
p684
I1
sVson
p685
I1
sVbank
p686
I1
sVsuccessor
p687
I2
sVmystery
p688
I1
sVoutbursts
p689
I1
sVname
p690
I1
sVopera
p691
I2
sVdebut
p692
I1
sVlist
p693
I1
sVbrother
p694
I1
sVrace
p695
I1
sVofficer
p696
I1
sVshots
p697
I1
sVteam
p698
I7
sVtriumph
p699
I1
sVwidow
p700
I1
sVappointment
p701
I1
sV12-Meter
p702
I1
sVankles
p703
I1
sVaides
p704
I2
sVback
p705
I1
sVsabbath
p706
I1
sVsign
p707
I1
sVdefense
p708
I1
sVarm
p709
I2
sVplays
p710
I1
sVpaintings
p711
I3
sVlife
p712
I1
sVdismissal
p713
I1
sVfinger
p714
I1
sVappeal
p715
I1
sVnose
p716
I2
sVrefusal
p717
I1
sVability
p718
I1
sVPresidency
p719
I2
sVUniversity
p720
I1
sVjob
p721
I1
sVapartment
p722
I1
sVopposition
p723
I1
sVpath
p724
I1
sVpost
p725
I2
sVcompositions
p726
I1
sVtraining
p727
I1
sVthreats
p728
I1
sVconsciousness
p729
I1
sVextension
p730
I2
sVcareer
p731
I2
sVcountry
p732
I1
sVregion
p733
I1
sVgames
p734
I1
sVvision
p735
I1
sVtestimony
p736
I1
sVluck
p737
I1
sVchanges
p738
I1
sVfirst
p739
I1
sVcampaign
p740
I2
sVpoint
p741
I1
sVmarriages
p742
I1
sVfeelings
p743
I1
sVfeet
p744
I1
sVpatience
p745
I1
sVcolon
p746
I2
sVcollages
p747
I1
sVseasons
p748
I1
sVrespect
p749
I1
sVsoul
p750
I2
sVunit
p751
I1
sVenvironment
p752
I1
sVstory
p753
I1
sVvan
p754
I1
sV1983
p755
I2
sVholdings
p756
I1
sVlinemen
p757
I2
sVmouthpiece
p758
I1
sVdirection
p759
I2
sVpredictions
p760
I1
sVIliad
p761
I1
sVcommission
p762
I1
sVway
p763
I2
sVmemory
p764
I1
sVfilms
p765
I2
sVfriend
p766
I1
sVscans
p767
I1
sVinterests
p768
I1
sVeyes
p769
I1
sVoption
p770
I1
sVappointees
p771
I1
sVseason
p772
I1
sVcompany
p773
I2
sVbladder
p774
I1
sVankle
p775
I1
sVcraft
p776
I1
sVarms
p777
I1
sVdoctors
p778
I3
sVbuying
p779
I1
sVcount
p780
I1
sVwork
p781
I1
sVbargain
p782
I1
sVvalue
p783
I1
sVcast
p784
I2
sVlocker
p785
I1
sVSpain
p786
I1
sVfreedom
p787
I1
sVelbow
p788
I1
sVcab
p789
I1
sVvoice
p790
I1
sVemployees
p791
I1
sVengineers
p792
I1
sVheart
p793
I2
sVdownfall
p794
I1
sVhead
p795
I2
sVtonight
p796
I2
sVfirm
p797
I2
sVelevation
p798
I1
sVtrip
p799
I1
sVfilm
p800
I1
sVmovements
p801
I1
sVbone
p802
I1
sVstrength
p803
I1
sVgoal
p804
I3
sVdancing
p805
I1
sVstake
p806
I1
sVpinkie
p807
I1
sVspleen
p808
I1
sVchest
p809
I1
sVMinister
p810
I1
sVdepartment
p811
I1
sVparty
p812
I1
sVswiftness
p813
I1
sVquarterback
p814
I1
sVlawyers
p815
I3
sVweaknesses
p816
I1
sVplane
p817
I1
sVplan
p818
I1
sVscores
p819
I1
sVbelongings
p820
I1
sVdischarge
p821
I1
sVstrategists
p822
I1
sVfriends
p823
I1
sVresponse
p824
I1
sVman
p825
I1
sVorganization
p826
I1
sVwife
p827
I6
sVrequest
p828
I2
sVdrive
p829
I1
sVjacket
p830
I1
sVboat
p831
I3
sVpoints
p832
I3
sVyum
p833
I1
sVagenda
p834
I1
sVtenure
p835
I1
sVposition
p836
I2
sVtalk
p837
I1
ssVprep_between
p838
(dp839
Vdecade
p840
I1
sVfight
p841
I1
ssVdep
p842
(dp843
Vbegins
p844
I1
sVsaid
p845
I1
sVLEAD
p846
I1
sVTen
p847
I1
sVchant
p848
I1
sVMission
p849
I1
sVBALANCHINE
p850
I1
sVmusic
p851
I1
sVCummings
p852
I1
sVfirst
p853
I1
ssVappos
p854
(dp855
Vlawyers
p856
I1
sVgrant
p857
I1
sVfather
p858
I1
sVbrother
p859
I1
sVson
p860
I1
sVmanager
p861
I1
sVmodel
p862
I1
sVCory
p863
I1
ssVdobj
p864
(dp865
Vsaying
p866
I2
sVsigning
p867
I1
sVrequired
p868
I1
sVfollowed
p869
I2
sVmove
p870
I1
sVback
p871
I1
sVhonored
p872
I1
sVscares
p873
I1
sVendeared
p874
I1
sVforced
p875
I1
sVsaid
p876
I3
sVplays
p877
I1
sVinformed
p878
I1
sVtouched
p879
I1
sVtell
p880
I1
sVtold
p881
I2
sVshut
p882
I2
sVhit
p883
I2
sVreturned
p884
I1
sVbothered
p885
I1
sVsucceed
p886
I1
sVrecalled
p887
I1
sVbothering
p888
I1
sVretaining
p889
I1
sVchecked
p890
I1
sVincludes
p891
I1
sVCalled
p892
I1
sVpull
p893
I1
sVtoppling
p894
I1
sVjoin
p895
I1
sVwork
p896
I1
sVsumming
p897
I1
sVremove
p898
I2
sVhired
p899
I1
sVreplaced
p900
I1
sVasked
p901
I2
ssVprep_on
p902
(dp903
Vshine
p904
I2
sVput
p905
I1
ssVpobj
p906
(dp907
Vof
p908
I1
sVin
p909
I1
ssViobj
p910
(dp911
Vgiving
p912
I1
sVmade
p913
I1
ssVprep_in
p914
(dp915
Vstronghold
p916
I1
sVtown
p917
I1
sVgrew
p918
I1
sVbased
p919
I1
sVopened
p920
I2
sVbombed
p921
I1
sVstrife
p922
I1
sVchiefs
p923
I1
sVtrial
p924
I2
sVbase
p925
I2
sVmade
p926
I1
ssVprep_in_front_of
p927
(dp928
Vnet
p929
I1
ssVprep_of
p930
(dp931
Vpicture
p932
I1
sVDuke
p933
I1
sVwest
p934
I1
sVMuseum
p935
I2
sVcitizens
p936
I2
sVChih-yi
p937
I2
sVGabel
p938
I1
sVstatue
p939
I2
sVdreaming
p940
I1
sVEducation
p941
I1
sVtradition
p942
I1
sVsouth
p943
I1
sVSecretary
p944
I3
ssVnsubjpass
p945
(dp946
Vsentenced
p947
I1
sVgone
p948
I2
sVsaturated
p949
I1
sVtired
p950
I1
sVreported
p951
I1
sVelected
p952
I1
sVpicked
p953
I1
sVallowed
p954
I1
sVrewarded
p955
I1
sVdischarged
p956
I1
sVgiven
p957
I1
sVcaught
p958
I1
sVhad
p959
I1
sVdismissed
p960
I1
sVborn
p961
I1
sVemployed
p962
I1
sVstruck
p963
I1
sVscheduled
p964
I1
sVprepared
p965
I2
sVcriticized
p966
I1
sVexpected
p967
I2
sVsurvived
p968
I1
sVgot
p969
I1
sVknown
p970
I3
sVremoved
p971
I1
sVconvinced
p972
I1
sVpermitted
p973
I2
sVheld
p974
I1
sVinvolved
p975
I1
sVinspired
p976
I1
sVrequired
p977
I1
sVsigned
p978
I1
sVworried
p979
I1
sVbecame
p980
I1
sVpromoted
p981
I1
sVcalled
p982
I3
ssVroot
p983
(dp984
VROOT
p985
I4
ssVprep_if
p986
(dp987
Vbeats
p988
I1
sssS'female'
p989
(dp990
Vprep_against
p991
(dp992
Vvote
p993
I1
ssVprep_with
p994
(dp995
Vseen
p996
I1
sVmet
p997
I1
ssVparataxis
p998
(dp999
Vbegins
p1000
I1
ssVprep_across
p1001
(dp1002
Vcampuses
p1003
I1
ssVagent
p1004
(dp1005
Vheaded
p1006
I1
ssVccomp
p1007
(dp1008
Vends
p1009
I1
sVsaid
p1010
I1
ssVprep_through
p1011
(dp1012
Vbe
p1013
I1
ssVnsubjpass
p1014
(dp1015
Vfed
p1016
I1
sVinvolved
p1017
I1
sVowned
p1018
I1
sVsolicited
p1019
I1
sVsurvived
p1020
I1
sVexpected
p1021
I1
ssVprep_from
p1022
(dp1023
Vsaid
p1024
I1
sVdischarged
p1025
I1
ssVnn
p1026
(dp1027
VRegina
p1028
I2
sVService
p1029
I1
sVaccommodations
p1030
I1
sVtalks
p1031
I3
sVRobertson
p1032
I1
sVcaptain
p1033
I1
sVResources
p1034
I1
sVMartinetti
p1035
I1
sVjudges
p1036
I2
sVHoover
p1037
I1
sVBonds
p1038
I1
sVCompany
p1039
I1
sVSpadaccia
p1040
I1
sVFrey
p1041
I1
sVNichols
p1042
I1
sVKeller
p1043
I1
sVBurns
p1044
I1
sVLeague
p1045
I2
sVMans
p1046
I1
sVWhitman
p1047
I1
sVCrumm
p1048
I2
sVgame
p1049
I1
sVcompound
p1050
I1
sVPherson
p1051
I1
sVHess
p1052
I1
sVGeorge
p1053
I1
sVRaiders
p1054
I1
sVCarroll
p1055
I1
sVMuseum
p1056
I3
sVofficials
p1057
I1
sVAarons
p1058
I2
sVMotley
p1059
I1
sVHammond
p1060
I2
sVCaddell
p1061
I1
sVGabel
p1062
I1
sVRailroad
p1063
I2
sVHarlow
p1064
I2
sVaccord
p1065
I1
sVdevotee
p1066
I2
sVUniversity
p1067
I1
sVTimes
p1068
I1
sVFerrari
p1069
I1
sVAquino
p1070
I2
sVemployees
p1071
I1
sVMahdaviani
p1072
I1
sVWoods
p1073
I1
sVFoxworth
p1074
I1
sVFreight
p1075
I1
sVMichelson
p1076
I1
sVMcGillion
p1077
I1
sVfacility
p1078
I1
sVTravel
p1079
I3
sVAdministration
p1080
I2
sVStark
p1081
I2
sVreservists
p1082
I1
sVChamoun
p1083
I1
sVLou
p1084
I1
sVBaros
p1085
I2
sVCapasso
p1086
I1
sVBingham
p1087
I2
sVBrothers
p1088
I1
sVGodzich
p1089
I2
sVWilkins
p1090
I2
sVPeak
p1091
I1
sVHanson
p1092
I1
sVAsklund
p1093
I2
sVHospital
p1094
I1
sVtoday
p1095
I1
sVmurder
p1096
I1
sVoffer
p1097
I1
sVslump
p1098
I1
sVO'Leary
p1099
I1
sVfinery
p1100
I1
sVBerkes
p1101
I1
sVBarbara
p1102
I4
sVZabriskie
p1103
I1
sVPaprocki
p1104
I1
sVAnn
p1105
I1
sVReagan
p1106
I2
sVThatcher
p1107
I2
sVCounty
p1108
I2
sVO'Brien
p1109
I1
sVMurzyn
p1110
I1
sVAvenue
p1111
I1
sVHubbard
p1112
I2
sVGlick
p1113
I2
sVRicciarelli
p1114
I1
sVdissident
p1115
I1
sVSosenko
p1116
I1
sVDivision
p1117
I1
sVGarden
p1118
I2
sVFabre
p1119
I1
sVA6
p1120
I1
sVGallery
p1121
I1
sVKleeve
p1122
I1
sVCather
p1123
I2
sVDrive
p1124
I1
sVRyan
p1125
I1
sVII
p1126
I4
sVPersia
p1127
I1
sVlaw
p1128
I1
sVCorps
p1129
I1
sVStevens
p1130
I1
sVLewis
p1131
I2
sVcamp
p1132
I2
sVHauser
p1133
I1
sVMyerson
p1134
I2
sVGoodridge
p1135
I1
sVD1
p1136
I1
ssVprep_since
p1137
(dp1138
Vclaimed
p1139
I1
sVruled
p1140
I1
ssVprep_for
p1141
(dp1142
Vscheduled
p1143
I1
ssVprep_though
p1144
(dp1145
Vinterested
p1146
I1
ssVconj_and
p1147
(dp1148
VAugust
p1149
I1
sVDevils
p1150
I2
sVJanuary
p1151
I1
sVdragster
p1152
I1
sVOtto
p1153
I1
sVJapan
p1154
I3
sVsubject
p1155
I1
sVRupp
p1156
I2
ssVprep_as
p1157
(dp1158
Vvaried
p1159
I1
ssVnsubj
p1160
(dp1161
Vcomposed
p1162
I1
sVraised
p1163
I1
sVset
p1164
I1
sVsays
p1165
I1
sVappeared
p1166
I1
sVunderwent
p1167
I2
sVagreed
p1168
I1
sVcontender
p1169
I1
sVbombed
p1170
I1
sVleans
p1171
I1
sVenters
p1172
I1
sVheard
p1173
I1
sVflouted
p1174
I1
sVdecided
p1175
I1
sVhave
p1176
I1
sVreached
p1177
I1
sVwatched
p1178
I1
sVmade
p1179
I1
sVsaw
p1180
I2
sVfilm
p1181
I1
sVseemed
p1182
I2
sVneeds
p1183
I1
sVsaid
p1184
I14
sVopened
p1185
I1
sVdriving
p1186
I1
sVtermed
p1187
I1
sVget
p1188
I1
sVsupplied
p1189
I1
sVasking
p1190
I1
sVslammed
p1191
I1
sVchairman
p1192
I1
sVcompetitive
p1193
I1
sVate
p1194
I1
sVtaken
p1195
I1
sVgot
p1196
I1
sVlearned
p1197
I1
sVhas
p1198
I1
sVwas
p1199
I3
sVannounced
p1200
I1
sVtold
p1201
I1
sVgained
p1202
I1
sVbuy
p1203
I1
sVreturn
p1204
I1
sVsitting
p1205
I1
sV's
p1206
I1
sVdeliver
p1207
I1
sVbought
p1208
I1
sVaware
p1209
I1
sVmet
p1210
I1
sVfinished
p1211
I1
sVconveyed
p1212
I1
sVmailed
p1213
I1
sVknow
p1214
I1
sVNancy
p1215
I1
sVserved
p1216
I1
sVemphasized
p1217
I1
sVwin
p1218
I1
sVappointed
p1219
I1
sVdied
p1220
I1
sVdevelops
p1221
I1
sVfly
p1222
I1
sVreceived
p1223
I3
sVshouted
p1224
I1
sVkept
p1225
I1
sVworking
p1226
I1
sVignites
p1227
I1
sVcreated
p1228
I1
sVlight
p1229
I1
sVrealizes
p1230
I1
sVwork
p1231
I1
sVjoined
p1232
I1
sVwalked
p1233
I1
sVcalled
p1234
I1
sVused
p1235
I1
sVwhacky
p1236
I1
sVpresent
p1237
I1
sVplanned
p1238
I1
sVexperiencing
p1239
I1
sVarrived
p1240
I1
sVawakened
p1241
I1
sVintroduced
p1242
I1
sVasked
p1243
I1
sVwrote
p1244
I1
ssVprep_between
p1245
(dp1246
Voccasions
p1247
I1
sVNovember
p1248
I1
ssVprep_near
p1249
(dp1250
Vowners
p1251
I1
ssVtmod
p1252
(dp1253
Vdrafted
p1254
I1
sVsaid
p1255
I2
sVlead
p1256
I2
sVeffective
p1257
I1
sVcolder
p1258
I1
sVbeen
p1259
I2
sVcollided
p1260
I1
sVare
p1261
I1
sVslashed
p1262
I1
ssVprep_before
p1263
(dp1264
Vleave
p1265
I1
ssVposs
p1266
(dp1267
Vseascapes
p1268
I1
sVmonths
p1269
I1
sVpledge
p1270
I1
sVoffice
p1271
I1
sVCup
p1272
I4
sVreasons
p1273
I1
sVreservations
p1274
I1
sVcommitment
p1275
I1
sVown
p1276
I1
sVvoucher
p1277
I1
sVlawyer
p1278
I3
sVsense
p1279
I1
sVportrait
p1280
I1
sVwork
p1281
I1
sVchildren
p1282
I1
sVopponents
p1283
I1
sVresults
p1284
I1
sVcampaign
p1285
I4
sVseries
p1286
I1
sVHeir
p1287
I1
sVwork-prints
p1288
I1
sVforehead
p1289
I1
sVstate
p1290
I1
sVsubjects
p1291
I3
sVdictator
p1292
I1
sVportraits
p1293
I3
sVSisters
p1294
I3
sVrole
p1295
I1
sVphotographs
p1296
I1
sVhead
p1297
I2
sVgrandchildren
p1298
I1
sVCUP
p1299
I2
sVhull
p1300
I1
sVcostume
p1301
I1
sVcounsel
p1302
I1
sVhand
p1303
I1
sVtest
p1304
I1
sVpart
p1305
I1
sVleaps
p1306
I1
sVcorporations
p1307
I1
sVreverence
p1308
I1
sVSenator
p1309
I1
sVstrategists
p1310
I1
sVtradition
p1311
I1
sVbuying
p1312
I1
sVneck
p1313
I1
sVcase
p1314
I1
sVmessiness
p1315
I1
sVaccount
p1316
I1
sVnagging
p1317
I1
sVname
p1318
I1
sVpresidency
p1319
I2
sVface
p1320
I1
sVhome
p1321
I1
sVcar
p1322
I2
sVidentification
p1323
I1
sVpopularity
p1324
I1
sVappearance
p1325
I2
sVbrother
p1326
I1
sVfather
p1327
I1
sVaudience
p1328
I1
sVrace
p1329
I1
sVtestimony
p1330
I1
sVvoice
p1331
I2
sVcamera
p1332
I1
sVhusband
p1333
I6
sVBelt
p1334
I2
ssVprep_next
p1335
(dp1336
Videntity
p1337
I2
ssVnpadvmod
p1338
(dp1339
VBALANCHINE
p1340
I1
sVIn
p1341
I1
ssVprep_to
p1342
(dp1343
Vback
p1344
I1
ssVdep
p1345
(dp1346
VCity
p1347
I1
sVLEAD
p1348
I3
sVShow
p1349
I1
sVCorrection
p1350
I1
sVOne
p1351
I1
sVCummings
p1352
I1
sVsuch
p1353
I1
sVBelt
p1354
I2
sVwoven
p1355
I1
sVfilm
p1356
I2
sVWR
p1357
I1
ssVappos
p1358
(dp1359
V12-Meter
p1360
I1
sVowners
p1361
I1
sVdaughter
p1362
I2
sVwife
p1363
I4
sVWRESTLING
p1364
I1
sVbrother
p1365
I1
sVspokesman
p1366
I1
sVMighty
p1367
I1
sVMother
p1368
I2
sVDakota
p1369
I2
sVNAIROBI
p1370
I1
ssVdobj
p1371
(dp1372
Vtelephoned
p1373
I1
sVsaid
p1374
I2
sVplays
p1375
I1
sVdefend
p1376
I1
sVevoked
p1377
I1
sVcalling
p1378
I1
sVdiscover
p1379
I1
sVsee
p1380
I1
sVvoted
p1381
I1
sVdenied
p1382
I1
sVseek
p1383
I1
sVentitled
p1384
I3
ssVprep_on
p1385
(dp1386
Vreport
p1387
I1
sVrace
p1388
I1
sVseized
p1389
I1
ssVpobj
p1390
(dp1391
Vin
p1392
I1
ssVprep_in
p1393
(dp1394
Vofferings
p1395
I1
sVopposes
p1396
I1
sVnights
p1397
I1
sVvan
p1398
I1
sVsaid
p1399
I1
sVaccident
p1400
I1
sVcharges
p1401
I1
sVleave
p1402
I1
sVappearances
p1403
I1
sVslump
p1404
I1
sVgeneral
p1405
I1
sVCounty
p1406
I1
sVlived
p1407
I1
sVlives
p1408
I1
sVcombined
p1409
I1
sVcars
p1410
I1
sVHome
p1411
I2
sVparole
p1412
I1
sVmeeting
p1413
I1
sVHospital
p1414
I2
sVchoice
p1415
I1
ssVprep_of
p1416
(dp1417
Vlife
p1418
I1
sVGroup
p1419
I1
sVName
p1420
I2
sVCorporation
p1421
I1
sVSacrifice
p1422
I1
sVByrd
p1423
I1
sVVolkswagen
p1424
I1
sVReid
p1425
I1
sVAusten
p1426
I1
sVpresident
p1427
I1
sVBells
p1428
I1
ssVroot
p1429
(dp1430
VROOT
p1431
I2
sss.